Certificate:
    Data:
        Version: 3 (0x2)
        Serial Number:
            01:b0:01:fe:40:bf:96:77:47:51:a7:2e:9f:5d:e5:33:3d:6b:62
        Signature Algorithm: sha256WithRSAEncryption
        Issuer: C = US, ST = California, L = Mountain View, O = Google LLC, OU = Cloud, CN = "tpm_ek_v1_cloud_host-signer-0-2021-10-12T04:22:11-07:00 K:1, 3:nbvaGZFLcuc:0:18"
        Validity
            Not Before: Sep 11 13:11:28 2022 GMT
            Not After : Sep  3 13:16:28 2052 GMT
        Subject: 
        Subject Public Key Info:
            Public Key Algorithm: rsaEncryption
                RSA Public-Key: (2048 bit)
                Modulus:
                    00:b9:ca:a3:c8:1d:1b:a9:f8:c8:a4:d2:a5:b4:c4:
                    9e:57:98:94:95:b6:3d:e5:84:72:8b:f1:3d:10:85:
                    89:b3:12:df:a8:a7:b0:1f:91:be:ee:8e:61:9f:12:
                    d9:04:a2:8f:16:6e:e9:8b:ab:eb:37:35:60:f1:df:
                    b7:12:fc:6f:66:55:fe:23:5f:96:42:e3:41:14:e8:
                    f1:1d:27:5e:74:f5:c2:0a:4f:cd:73:23:77:a4:43:
                    05:2f:9b:1b:71:9f:8a:3d:ad:c2:5c:b9:32:e7:e7:
                    46:5e:9b:8b:a0:e6:7b:0c:27:96:68:89:b2:1b:72:
                    53:7d:c3:5b:85:d1:d1:df:5f:f7:3b:74:d5:1e:86:
                    ef:b7:d8:1f:bb:b9:12:db:95:88:89:02:80:f9:a4:
                    4a:34:8e:81:d5:98:3b:ef:34:6c:fa:24:ea:e2:0b:
                    0a:f8:1b:d9:7f:d8:70:e5:20:4e:e1:f0:ee:d5:b7:
                    63:c3:87:18:ec:8a:79:ff:91:28:16:58:38:be:51:
                    61:85:94:25:21:e5:30:10:bb:f3:3c:da:dc:30:fa:
                    b3:c4:fe:76:50:5f:2f:ce:99:0d:c2:ec:2d:ed:9a:
                    d3:a8:0c:66:a4:0f:6f:62:70:6e:5f:35:6d:98:0a:
                    62:64:33:99:46:3e:79:72:37:ed:ab:df:a4:71:d7:
                    83:29
                Exponent: 65537 (0x10001)
        X509v3 extensions:
            X509v3 Basic Constraints: critical
                CA:FALSE
            X509v3 Authority Key Identifier: 
                keyid:67:08:C4:77:11:FD:D5:87:84:D3:2C:1D:6B:4D:97:83:60:84:25:80

            Authority Information Access: 
                CA Issuers - URI:https://pki.goog/cloud_integrity/tpm_ek_intermediate_3.crt

            X509v3 CRL Distribution Points: 

                Full Name:
                  URI:https://pki.goog/cloud_integrity/tpm_ek_intermediate_3.crl

            X509v3 Key Usage: critical
                Key Encipherment
            X509v3 Extended Key Usage: 
                2.23.133.8.1
            X509v3 Subject Directory Attributes: 
                0.0...g....1.0...2.0.......
            X509v3 Subject Alternative Name: critical
                DirName:/2.23.133.2.1=id:474F4F47/2.23.133.2.2=vTPM/2.23.133.2.3=id:20160511
            1.3.6.1.4.1.11129.2.1.21: 
us-central1-a....m.et..mineral-minutia-820...n.*..aJ..paccor-vm. 0...............................
    Signature Algorithm: sha256WithRSAEncryption
         18:98:cd:cb:e4:6e:ef:1b:39:4f:26:4d:97:75:a0:7d:06:2a:
         c2:bd:87:29:14:2e:c6:ba:be:e5:77:3a:46:9c:06:0c:3a:40:
         8f:a3:c0:9a:3e:9c:de:86:28:67:62:ca:d8:a8:5a:6a:59:c1:
         5e:d4:3e:d1:6d:66:ea:3f:9c:5e:b6:25:55:35:80:4c:80:8f:
         52:94:aa:61:44:a5:28:2a:6a:94:4f:49:40:35:06:c1:64:e8:
         40:e6:0a:2c:1d:e0:2e:2d:58:87:53:57:bd:7d:93:51:8b:c1:
         ea:27:5b:17:6f:28:42:fa:b0:70:c3:70:ed:ea:aa:7d:57:37:
         71:48:a2:24:72:33:ce:55:5a:c5:97:58:3d:91:0f:dd:27:0c:
         72:90:c0:d5:58:41:ce:36:ed:58:60:0e:9d:c2:15:54:55:e4:
         ae:28:5d:f6:64:26:56:b3:e0:10:d8:e0:e0:ff:af:eb:1e:9c:
         67:11:18:cc:eb:55:1c:b2:d1:89:fc:8c:cc:22:73:65:c8:ad:
         6e:ce:59:17:1a:a0:c4:5d:d4:5d:0c:1d:98:de:2a:7e:d8:35:
         81:b3:6e:2a:85:f0:8c:f6:30:23:f7:3c:fa:1d:e4:25:7c:d5:
         29:31:c3:77:8f:0e:4e:39:27:32:1b:d4:20:61:b2:06:b5:a2:
         8a:da:10:37
-----BEGIN CERTIFICATE-----
MIIFMTCCBBmgAwIBAgITAbAB/kC/lndHUacun13lMz1rYjANBgkqhkiG9w0BAQsF
ADCBuTELMAkGA1UEBhMCVVMxEzARBgNVBAgTCkNhbGlmb3JuaWExFjAUBgNVBAcT
DU1vdW50YWluIFZpZXcxEzARBgNVBAoTCkdvb2dsZSBMTEMxDjAMBgNVBAsTBUNs
b3VkMVgwVgYDVQQDDE90cG1fZWtfdjFfY2xvdWRfaG9zdC1zaWduZXItMC0yMDIx
LTEwLTEyVDA0OjIyOjExLTA3OjAwIEs6MSwgMzpuYnZhR1pGTGN1YzowOjE4MCAX
DTIyMDkxMTEzMTEyOFoYDzIwNTIwOTAzMTMxNjI4WjAAMIIBIjANBgkqhkiG9w0B
AQEFAAOCAQ8AMIIBCgKCAQEAucqjyB0bqfjIpNKltMSeV5iUlbY95YRyi/E9EIWJ
sxLfqKewH5G+7o5hnxLZBKKPFm7pi6vrNzVg8d+3EvxvZlX+I1+WQuNBFOjxHSde
dPXCCk/NcyN3pEMFL5sbcZ+KPa3CXLky5+dGXpuLoOZ7DCeWaImyG3JTfcNbhdHR
31/3O3TVHobvt9gfu7kS25WIiQKA+aRKNI6B1Zg77zRs+iTq4gsK+BvZf9hw5SBO
4fDu1bdjw4cY7Ip5/5EoFlg4vlFhhZQlIeUwELvzPNrcMPqzxP52UF8vzpkNwuwt
7ZrTqAxmpA9vYnBuXzVtmApiZDOZRj55cjftq9+kcdeDKQIDAQABo4IB5jCCAeIw
DAYDVR0TAQH/BAIwADAfBgNVHSMEGDAWgBRnCMR3Ef3Vh4TTLB1rTZeDYIQlgDBW
BggrBgEFBQcBAQRKMEgwRgYIKwYBBQUHMAKGOmh0dHBzOi8vcGtpLmdvb2cvY2xv
dWRfaW50ZWdyaXR5L3RwbV9la19pbnRlcm1lZGlhdGVfMy5jcnQwSwYDVR0fBEQw
QjBAoD6gPIY6aHR0cHM6Ly9wa2kuZ29vZy9jbG91ZF9pbnRlZ3JpdHkvdHBtX2Vr
X2ludGVybWVkaWF0ZV8zLmNybDAOBgNVHQ8BAf8EBAMCBSAwEAYDVR0lBAkwBwYF
Z4EFCAEwIgYDVR0JBBswGTAXBgVngQUCEDEOMAwMAzIuMAIBAAICAI4wUQYDVR0R
AQH/BEcwRaRDMEExFjAUBgVngQUCAQwLaWQ6NDc0RjRGNDcxDzANBgVngQUCAgwE
dlRQTTEWMBQGBWeBBQIDDAtpZDoyMDE2MDUxMTBzBgorBgEEAdZ5AgEVBGUwYwwN
dXMtY2VudHJhbDEtYQIGAPltg2V0DBNtaW5lcmFsLW1pbnV0aWEtODIwAggPbrkq
vbBhSgwJcGFjY29yLXZtoCAwHqADAgEAoQMBAf+iAwEB/6MDAQEApAMBAQClAwEB
ADANBgkqhkiG9w0BAQsFAAOCAQEAGJjNy+Ru7xs5TyZNl3WgfQYqwr2HKRQuxrq+
5Xc6RpwGDDpAj6PAmj6c3oYoZ2LK2KhaalnBXtQ+0W1m6j+cXrYlVTWATICPUpSq
YUSlKCpqlE9JQDUGwWToQOYKLB3gLi1Yh1NXvX2TUYvB6idbF28oQvqwcMNw7eqq
fVc3cUiiJHIzzlVaxZdYPZEP3ScMcpDA1VhBzjbtWGAOncIVVFXkrihd9mQmVrPg
ENjg4P+v6x6cZxEYzOtVHLLRifyMzCJzZcitbs5ZFxqgxF3UXQwdmN4qftg1gbNu
KoXwjPYwI/c8+h3kJXzVKTHDd48OTjknMhvUIGGyBrWiitoQNw==
-----END CERTIFICATE-----
